target datalayout = "e-m:e-p270:32:32-p271:32:32-p272:64:64-i64:64-i128:128-f80:128-n8:16:32:64-S128"
target triple = "x86_64-pc-linux-gnu"

%struct.mbedtls_md_context_t = type { ptr, ptr, ptr }
%struct.mbedtls_md_info_t = type { i32, i8, i8 }

; Function Attrs: nounwind uwtable
define hidden i32 @mbedtls_md_update(ptr noundef %0, ptr noundef %1, i64 noundef %2) #0 {
  %4 = alloca i32, align 4
  %5 = alloca ptr, align 8
  %6 = alloca ptr, align 8
  %7 = alloca i64, align 8
  store ptr %0, ptr %5, align 8, !tbaa !7
  store ptr %1, ptr %6, align 8, !tbaa !19
  store i64 %2, ptr %7, align 8, !tbaa !21
  %8 = load ptr, ptr %5, align 8, !tbaa !7
  %9 = icmp eq ptr %8, null
  br i1 %9, label %15, label %10

10:                                               ; preds = %3
  %11 = load ptr, ptr %5, align 8, !tbaa !7
  %12 = getelementptr inbounds nuw %struct.mbedtls_md_context_t, ptr %11, i32 0, i32 0
  %13 = load ptr, ptr %12, align 8, !tbaa !10
  %14 = icmp eq ptr %13, null
  br i1 %14, label %15, label %16

15:                                               ; preds = %10, %3
  store i32 -20736, ptr %4, align 4
  br label %79

16:                                               ; preds = %10
  %17 = load ptr, ptr %5, align 8, !tbaa !7
  %18 = getelementptr inbounds nuw %struct.mbedtls_md_context_t, ptr %17, i32 0, i32 0
  %19 = load ptr, ptr %18, align 8, !tbaa !10
  %20 = getelementptr inbounds nuw %struct.mbedtls_md_info_t, ptr %19, i32 0, i32 0
  %21 = load i32, ptr %20, align 4, !tbaa !14
  switch i32 %21, label %78 [
    i32 3, label %22
    i32 4, label %29
    i32 5, label %36
    i32 8, label %43
    i32 9, label %50
    i32 10, label %57
    i32 11, label %64
    i32 16, label %71
    i32 17, label %71
    i32 18, label %71
    i32 19, label %71
  ]

22:                                               ; preds = %16
  %23 = load ptr, ptr %5, align 8, !tbaa !7
  %24 = getelementptr inbounds nuw %struct.mbedtls_md_context_t, ptr %23, i32 0, i32 1
  %25 = load ptr, ptr %24, align 8, !tbaa !13
  %26 = load ptr, ptr %6, align 8, !tbaa !19
  %27 = load i64, ptr %7, align 8, !tbaa !21
  %28 = call i32 @mbedtls_md5_update(ptr noundef %25, ptr noundef %26, i64 noundef %27)
  store i32 %28, ptr %4, align 4
  br label %79

29:                                               ; preds = %16
  %30 = load ptr, ptr %5, align 8, !tbaa !7
  %31 = getelementptr inbounds nuw %struct.mbedtls_md_context_t, ptr %30, i32 0, i32 1
  %32 = load ptr, ptr %31, align 8, !tbaa !13
  %33 = load ptr, ptr %6, align 8, !tbaa !19
  %34 = load i64, ptr %7, align 8, !tbaa !21
  %35 = call i32 @mbedtls_ripemd160_update(ptr noundef %32, ptr noundef %33, i64 noundef %34)
  store i32 %35, ptr %4, align 4
  br label %79

36:                                               ; preds = %16
  %37 = load ptr, ptr %5, align 8, !tbaa !7
  %38 = getelementptr inbounds nuw %struct.mbedtls_md_context_t, ptr %37, i32 0, i32 1
  %39 = load ptr, ptr %38, align 8, !tbaa !13
  %40 = load ptr, ptr %6, align 8, !tbaa !19
  %41 = load i64, ptr %7, align 8, !tbaa !21
  %42 = call i32 @mbedtls_sha1_update(ptr noundef %39, ptr noundef %40, i64 noundef %41)
  store i32 %42, ptr %4, align 4
  br label %79

43:                                               ; preds = %16
  %44 = load ptr, ptr %5, align 8, !tbaa !7
  %45 = getelementptr inbounds nuw %struct.mbedtls_md_context_t, ptr %44, i32 0, i32 1
  %46 = load ptr, ptr %45, align 8, !tbaa !13
  %47 = load ptr, ptr %6, align 8, !tbaa !19
  %48 = load i64, ptr %7, align 8, !tbaa !21
  %49 = call i32 @mbedtls_sha256_update(ptr noundef %46, ptr noundef %47, i64 noundef %48)
  store i32 %49, ptr %4, align 4
  br label %79

50:                                               ; preds = %16
  %51 = load ptr, ptr %5, align 8, !tbaa !7
  %52 = getelementptr inbounds nuw %struct.mbedtls_md_context_t, ptr %51, i32 0, i32 1
  %53 = load ptr, ptr %52, align 8, !tbaa !13
  %54 = load ptr, ptr %6, align 8, !tbaa !19
  %55 = load i64, ptr %7, align 8, !tbaa !21
  %56 = call i32 @mbedtls_sha256_update(ptr noundef %53, ptr noundef %54, i64 noundef %55)
  store i32 %56, ptr %4, align 4
  br label %79

57:                                               ; preds = %16
  %58 = load ptr, ptr %5, align 8, !tbaa !7
  %59 = getelementptr inbounds nuw %struct.mbedtls_md_context_t, ptr %58, i32 0, i32 1
  %60 = load ptr, ptr %59, align 8, !tbaa !13
  %61 = load ptr, ptr %6, align 8, !tbaa !19
  %62 = load i64, ptr %7, align 8, !tbaa !21
  %63 = call i32 @mbedtls_sha512_update(ptr noundef %60, ptr noundef %61, i64 noundef %62)
  store i32 %63, ptr %4, align 4
  br label %79

64:                                               ; preds = %16
  %65 = load ptr, ptr %5, align 8, !tbaa !7
  %66 = getelementptr inbounds nuw %struct.mbedtls_md_context_t, ptr %65, i32 0, i32 1
  %67 = load ptr, ptr %66, align 8, !tbaa !13
  %68 = load ptr, ptr %6, align 8, !tbaa !19
  %69 = load i64, ptr %7, align 8, !tbaa !21
  %70 = call i32 @mbedtls_sha512_update(ptr noundef %67, ptr noundef %68, i64 noundef %69)
  store i32 %70, ptr %4, align 4
  br label %79

71:                                               ; preds = %16, %16, %16, %16
  %72 = load ptr, ptr %5, align 8, !tbaa !7
  %73 = getelementptr inbounds nuw %struct.mbedtls_md_context_t, ptr %72, i32 0, i32 1
  %74 = load ptr, ptr %73, align 8, !tbaa !13
  %75 = load ptr, ptr %6, align 8, !tbaa !19
  %76 = load i64, ptr %7, align 8, !tbaa !21
  %77 = call i32 @mbedtls_sha3_update(ptr noundef %74, ptr noundef %75, i64 noundef %76)
  store i32 %77, ptr %4, align 4
  br label %79

78:                                               ; preds = %16
  store i32 -20736, ptr %4, align 4
  br label %79

79:                                               ; preds = %78, %71, %64, %57, %50, %43, %36, %29, %22, %15
  %80 = load i32, ptr %4, align 4
  ret i32 %80
}