; Function Attrs: nounwind uwtable
define hidden i32 @mbedtls_md_update(ptr noundef readonly %0, ptr noundef %1, i64 noundef %2) local_unnamed_addr #3 {
  %4 = icmp eq ptr %0, null
  br i1 %4, label %42, label %5

5:                                                ; preds = %3
  %6 = load ptr, ptr %0, align 8, !tbaa !3
  %7 = icmp eq ptr %6, null
  br i1 %7, label %42, label %8

8:                                                ; preds = %5
  %9 = load i32, ptr %6, align 4, !tbaa !10
  switch i32 %9, label %42 [
    i32 3, label %10
    i32 4, label %14
    i32 5, label %18
    i32 8, label %22
    i32 9, label %26
    i32 10, label %30
    i32 11, label %34
    i32 16, label %38
    i32 17, label %38
    i32 18, label %38
    i32 19, label %38
  ]

10:                                               ; preds = %8
  %11 = getelementptr inbounds nuw i8, ptr %0, i64 8
  %12 = load ptr, ptr %11, align 8, !tbaa !9
  %13 = tail call i32 @mbedtls_md5_update(ptr noundef %12, ptr noundef %1, i64 noundef %2) #14
  br label %42

14:                                               ; preds = %8
  %15 = getelementptr inbounds nuw i8, ptr %0, i64 8
  %16 = load ptr, ptr %15, align 8, !tbaa !9
  %17 = tail call i32 @mbedtls_ripemd160_update(ptr noundef %16, ptr noundef %1, i64 noundef %2) #14
  br label %42

18:                                               ; preds = %8
  %19 = getelementptr inbounds nuw i8, ptr %0, i64 8
  %20 = load ptr, ptr %19, align 8, !tbaa !9
  %21 = tail call i32 @mbedtls_sha1_update(ptr noundef %20, ptr noundef %1, i64 noundef %2) #14
  br label %42

22:                                               ; preds = %8
  %23 = getelementptr inbounds nuw i8, ptr %0, i64 8
  %24 = load ptr, ptr %23, align 8, !tbaa !9
  %25 = tail call i32 @mbedtls_sha256_update(ptr noundef %24, ptr noundef %1, i64 noundef %2) #14
  br label %42

26:                                               ; preds = %8
  %27 = getelementptr inbounds nuw i8, ptr %0, i64 8
  %28 = load ptr, ptr %27, align 8, !tbaa !9
  %29 = tail call i32 @mbedtls_sha256_update(ptr noundef %28, ptr noundef %1, i64 noundef %2) #14
  br label %42

30:                                               ; preds = %8
  %31 = getelementptr inbounds nuw i8, ptr %0, i64 8
  %32 = load ptr, ptr %31, align 8, !tbaa !9
  %33 = tail call i32 @mbedtls_sha512_update(ptr noundef %32, ptr noundef %1, i64 noundef %2) #14
  br label %42

34:                                               ; preds = %8
  %35 = getelementptr inbounds nuw i8, ptr %0, i64 8
  %36 = load ptr, ptr %35, align 8, !tbaa !9
  %37 = tail call i32 @mbedtls_sha512_update(ptr noundef %36, ptr noundef %1, i64 noundef %2) #14
  br label %42

38:                                               ; preds = %8, %8, %8, %8
  %39 = getelementptr inbounds nuw i8, ptr %0, i64 8
  %40 = load ptr, ptr %39, align 8, !tbaa !9
  %41 = tail call i32 @mbedtls_sha3_update(ptr noundef %40, ptr noundef %1, i64 noundef %2) #14
  br label %42

42:                                               ; preds = %8, %3, %5, %38, %34, %30, %26, %22, %18, %14, %10
  %.0 = phi i32 [ %41, %38 ], [ %37, %34 ], [ %33, %30 ], [ %29, %26 ], [ %25, %22 ], [ %21, %18 ], [ %17, %14 ], [ %13, %10 ], [ -20736, %5 ], [ -20736, %3 ], [ -20736, %8 ]
  ret i32 %.0
}